; Function Attrs: mustprogress nofree norecurse nosync nounwind willreturn memory(argmem: read) uwtable
define ptr @wolfSSL_GetMacSecret(ptr noundef readonly captures(address_is_null, ret: address, provenance) %0, i32 noundef %1) local_unnamed_addr #9 {
  %3 = icmp eq ptr %0, null
  br i1 %3, label %15, label %4

4:                                                ; preds = %2
  %5 = getelementptr inbounds nuw i8, ptr %0, i64 1024
  %6 = load i64, ptr %5, align 8
  %7 = trunc i64 %6 to i32
  %8 = lshr i32 %7, 4
  %9 = and i32 %8, 3
  %10 = icmp eq i32 %1, 0
  %or.cond11.v = zext i1 %10 to i32
  %or.cond11 = icmp eq i32 %9, %or.cond11.v
  br i1 %or.cond11, label %11, label %13

11:                                               ; preds = %4
  %12 = getelementptr inbounds nuw i8, ptr %0, i64 732
  br label %15

13:                                               ; preds = %4
  %14 = getelementptr inbounds nuw i8, ptr %0, i64 796
  br label %15

15:                                               ; preds = %2, %13, %11
  %.0 = phi ptr [ %12, %11 ], [ %14, %13 ], [ null, %2 ]
  ret ptr %.0
}